target datalayout = "e-m:e-p270:32:32-p271:32:32-p272:64:64-i64:64-i128:128-f80:128-n8:16:32:64-S128"
target triple = "x86_64-pc-linux-gnu"

%struct.WebPDecParams = type { ptr, ptr, ptr, ptr, i32, ptr, ptr, ptr, ptr, ptr, ptr, ptr, ptr, ptr }
%struct.WebPDecBuffer = type { i32, i32, i32, i32, %union.anon, [4 x i32], ptr }
%union.anon = type { %struct.WebPYUVABuffer }
%struct.WebPYUVABuffer = type { ptr, ptr, ptr, ptr, i32, i32, i32, i32, i64, i64, i64, i64 }
%struct.WebPRGBABuffer = type { ptr, i32, i64 }

; Function Attrs: nounwind uwtable
define hidden void @WebPResetDecParams(ptr noundef %0) #0 {
  %2 = alloca ptr, align 8
  store ptr %0, ptr %2, align 8, !tbaa !25
  %3 = load ptr, ptr %2, align 8, !tbaa !25
  %4 = icmp ne ptr %3, null
  br i1 %4, label %5, label %7

5:                                                ; preds = %1
  %6 = load ptr, ptr %2, align 8, !tbaa !25
  call void @llvm.memset.p0.i64(ptr align 8 %6, i8 0, i64 112, i1 false)
  br label %7

7:                                                ; preds = %5, %1
  ret void
}

; Function Attrs: inlinehint nounwind uwtable
define internal i32 @WebPInitDecBuffer(ptr noundef %0) #3 {
  %2 = alloca ptr, align 8
  store ptr %0, ptr %2, align 8, !tbaa !36
  %3 = load ptr, ptr %2, align 8, !tbaa !36
  %4 = call i32 @WebPInitDecBufferInternal(ptr noundef %3, i32 noundef 528)
  ret i32 %4
}

; Function Attrs: nounwind uwtable
define internal ptr @DecodeIntoRGBABuffer(i32 noundef %0, ptr noundef %1, i64 noundef %2, ptr noundef %3, i32 noundef %4, i64 noundef %5) #0 {
  %7 = alloca ptr, align 8
  %8 = alloca i32, align 4
  %9 = alloca ptr, align 8
  %10 = alloca i64, align 8
  %11 = alloca ptr, align 8
  %12 = alloca i32, align 4
  %13 = alloca i64, align 8
  %14 = alloca %struct.WebPDecParams, align 8
  %15 = alloca %struct.WebPDecBuffer, align 8
  %16 = alloca i32, align 4
  store i32 %0, ptr %8, align 4, !tbaa !7
  store ptr %1, ptr %9, align 8, !tbaa !14
  store i64 %2, ptr %10, align 8, !tbaa !15
  store ptr %3, ptr %11, align 8, !tbaa !14
  store i32 %4, ptr %12, align 4, !tbaa !7
  store i64 %5, ptr %13, align 8, !tbaa !15
  call void @llvm.lifetime.start.p0(i64 112, ptr %14) #7
  call void @llvm.lifetime.start.p0(i64 120, ptr %15) #7
  %17 = load ptr, ptr %11, align 8, !tbaa !14
  %18 = icmp eq ptr %17, null
  br i1 %18, label %22, label %19

19:                                               ; preds = %6
  %20 = call i32 @WebPInitDecBuffer(ptr noundef %15)
  %21 = icmp ne i32 %20, 0
  br i1 %21, label %23, label %22

22:                                               ; preds = %19, %6
  store ptr null, ptr %7, align 8
  store i32 1, ptr %16, align 4
  br label %44

23:                                               ; preds = %19
  call void @WebPResetDecParams(ptr noundef %14)
  %24 = getelementptr inbounds nuw %struct.WebPDecParams, ptr %14, i32 0, i32 0
  store ptr %15, ptr %24, align 8, !tbaa !27
  %25 = load i32, ptr %8, align 4, !tbaa !7
  %26 = getelementptr inbounds nuw %struct.WebPDecBuffer, ptr %15, i32 0, i32 0
  store i32 %25, ptr %26, align 8, !tbaa !32
  %27 = load ptr, ptr %11, align 8, !tbaa !14
  %28 = getelementptr inbounds nuw %struct.WebPDecBuffer, ptr %15, i32 0, i32 4
  %29 = getelementptr inbounds nuw %struct.WebPRGBABuffer, ptr %28, i32 0, i32 0
  store ptr %27, ptr %29, align 8, !tbaa !34
  %30 = load i32, ptr %12, align 4, !tbaa !7
  %31 = getelementptr inbounds nuw %struct.WebPDecBuffer, ptr %15, i32 0, i32 4
  %32 = getelementptr inbounds nuw %struct.WebPRGBABuffer, ptr %31, i32 0, i32 1
  store i32 %30, ptr %32, align 8, !tbaa !34
  %33 = load i64, ptr %13, align 8, !tbaa !15
  %34 = getelementptr inbounds nuw %struct.WebPDecBuffer, ptr %15, i32 0, i32 4
  %35 = getelementptr inbounds nuw %struct.WebPRGBABuffer, ptr %34, i32 0, i32 2
  store i64 %33, ptr %35, align 8, !tbaa !34
  %36 = getelementptr inbounds nuw %struct.WebPDecBuffer, ptr %15, i32 0, i32 3
  store i32 1, ptr %36, align 4, !tbaa !35
  %37 = load ptr, ptr %9, align 8, !tbaa !14
  %38 = load i64, ptr %10, align 8, !tbaa !15
  %39 = call i32 @DecodeInto(ptr noundef %37, i64 noundef %38, ptr noundef %14)
  %40 = icmp ne i32 %39, 0
  br i1 %40, label %41, label %42

41:                                               ; preds = %23
  store ptr null, ptr %7, align 8
  store i32 1, ptr %16, align 4
  br label %44

42:                                               ; preds = %23
  %43 = load ptr, ptr %11, align 8, !tbaa !14
  store ptr %43, ptr %7, align 8
  store i32 1, ptr %16, align 4
  br label %44

44:                                               ; preds = %42, %41, %22
  call void @llvm.lifetime.end.p0(i64 120, ptr %15) #7
  call void @llvm.lifetime.end.p0(i64 112, ptr %14) #7
  %45 = load ptr, ptr %7, align 8
  ret ptr %45
}

; Function Attrs: nounwind uwtable
define ptr @WebPDecodeBGRInto(ptr noundef %0, i64 noundef %1, ptr noundef %2, i64 noundef %3, i32 noundef %4) #0 {
  %6 = alloca ptr, align 8
  %7 = alloca i64, align 8
  %8 = alloca ptr, align 8
  %9 = alloca i64, align 8
  %10 = alloca i32, align 4
  store ptr %0, ptr %6, align 8, !tbaa !14
  store i64 %1, ptr %7, align 8, !tbaa !15
  store ptr %2, ptr %8, align 8, !tbaa !14
  store i64 %3, ptr %9, align 8, !tbaa !15
  store i32 %4, ptr %10, align 4, !tbaa !7
  %11 = load ptr, ptr %6, align 8, !tbaa !14
  %12 = load i64, ptr %7, align 8, !tbaa !15
  %13 = load ptr, ptr %8, align 8, !tbaa !14
  %14 = load i32, ptr %10, align 4, !tbaa !7
  %15 = load i64, ptr %9, align 8, !tbaa !15
  %16 = call ptr @DecodeIntoRGBABuffer(i32 noundef 2, ptr noundef %11, i64 noundef %12, ptr noundef %13, i32 noundef %14, i64 noundef %15)
  ret ptr %16
}